; Function Attrs: nounwind uwtable
define hidden noundef i32 @dom_document_standalone_read(ptr noundef %0, ptr nocapture noundef writeonly %1) local_unnamed_addr #0 {
  %3 = tail call ptr @dom_object_get_node(ptr noundef %0) #10
  %4 = icmp eq ptr %3, null
  br i1 %4, label %5, label %6

5:                                                ; preds = %2
  tail call void @php_dom_throw_error(i32 noundef 11, i32 noundef 1) #10
  br label %12

6:                                                ; preds = %2
  %7 = getelementptr inbounds i8, ptr %3, i64 76
  %8 = load i32, ptr %7, align 4
  %9 = icmp sgt i32 %8, 0
  %10 = select i1 %9, i32 3, i32 2
  %11 = getelementptr inbounds i8, ptr %1, i64 8
  store i32 %10, ptr %11, align 8
  br label %12

12:                                               ; preds = %6, %5
  %.0 = phi i32 [ -1, %5 ], [ 0, %6 ]
  ret i32 %.0
}